Certificate:
    Data:
        Version: 3 (0x2)
        Serial Number:
            30:f4:26:ff:1f:18:fd:e6:fd:df:77:0c:d3:fe:9c:10
    Signature Algorithm: sha256WithRSAEncryption
        Issuer: CN=mongoadmin
        Validity
            Not Before: Feb 13 15:52:44 2019 GMT
            Not After : Jan 28 15:52:44 2022 GMT
        Subject: CN=mongoserver
        Subject Public Key Info:
            Public Key Algorithm: rsaEncryption
                Public-Key: (2048 bit)
                Modulus:
                    00:ac:08:77:3d:d0:b0:72:31:36:10:34:98:96:18:
                    87:84:f8:d3:40:4f:ab:17:7e:e6:cd:03:bb:d3:33:
                    5f:40:fd:2b:ba:ba:44:53:50:b0:e2:de:32:10:79:
                    9f:31:0f:b3:58:73:16:26:47:d1:b5:f1:82:d1:e0:
                    34:0c:15:0c:db:97:d0:5a:e7:89:53:e2:ea:fd:46:
                    20:e2:4b:a3:f0:7a:c4:63:e8:6f:b5:c4:f5:91:04:
                    c2:60:78:ab:79:33:6f:f6:6a:b2:d5:54:2d:35:a4:
                    40:32:78:e3:8e:6e:14:fa:ee:b5:dc:83:cf:6d:13:
                    28:7a:a5:a7:73:0c:8c:09:9e:95:f2:8e:96:9e:09:
                    7d:91:8b:ef:c6:cc:37:f8:23:ad:2b:f0:54:30:97:
                    3e:f9:3f:67:be:d6:d7:b0:09:a9:c7:2c:87:a0:3d:
                    f8:a4:ec:f1:37:fe:6d:56:ec:f4:09:a4:38:89:8f:
                    bd:1a:55:07:91:99:7f:68:cc:36:8f:b6:77:8f:79:
                    9d:e7:a5:ce:96:81:92:f6:b0:80:66:4f:8a:ae:e9:
                    4e:fc:aa:f5:d2:ac:dc:c3:2a:27:6a:f5:6b:24:11:
                    52:f8:9a:cb:25:e0:86:cf:f3:a6:ee:bc:60:4f:8e:
                    90:f8:ea:2b:d6:bc:4d:bf:3f:3e:ce:74:eb:60:54:
                    16:e7
                Exponent: 65537 (0x10001)
        X509v3 extensions:
            X509v3 Basic Constraints: 
                CA:FALSE
            X509v3 Subject Key Identifier: 
                7F:82:0D:B8:8B:CE:7F:78:E7:25:B6:DC:2C:2C:B4:97:C3:0D:D6:26
            X509v3 Authority Key Identifier: 
                keyid:90:B8:CC:DD:80:20:1C:A7:63:8D:89:3C:B8:71:50:AD:3B:B6:A8:58
                DirName:/CN=mongoadmin
                serial:86:C8:79:EA:97:D9:FE:7C

            X509v3 Extended Key Usage: 
                TLS Web Server Authentication
            X509v3 Key Usage: 
                Digital Signature, Key Encipherment
            X509v3 Subject Alternative Name: 
                DNS:mongoserver
    Signature Algorithm: sha256WithRSAEncryption
         a6:e9:44:5a:90:8c:d3:52:15:c8:bb:f0:93:4c:b6:cf:40:ec:
         f2:cf:21:aa:01:56:e7:cb:8c:1d:da:f8:3d:80:df:e7:e2:1e:
         70:65:5f:83:00:3e:fe:11:a7:8a:ec:a6:88:75:ff:f3:34:94:
         f6:af:83:92:2b:8e:9c:2b:a6:0e:ea:e6:84:22:5d:3e:5b:90:
         e9:88:dc:70:63:ca:72:b5:a2:c1:ca:12:74:ee:74:32:17:40:
         e9:15:72:b4:ec:34:46:2f:b1:57:38:53:03:f9:26:3a:6e:4c:
         ac:2f:74:d3:73:22:67:fe:c3:c4:98:6b:54:ba:08:54:ea:37:
         b4:9d:f0:4b:59:46:bc:46:44:37:2a:71:2a:11:d7:30:7d:50:
         b7:51:68:c9:6e:94:81:ac:20:1f:93:6c:ce:8c:9e:76:64:ad:
         d3:76:4a:e8:50:e5:93:ec:4e:38:2c:4f:56:96:8b:15:ec:0c:
         8c:14:6f:d9:ba:70:87:05:57:f5:c2:61:66:95:32:63:f8:5a:
         c9:d7:ce:c3:6a:7c:21:eb:70:15:d7:a7:43:f8:61:b2:fb:fe:
         3d:74:cf:5e:d6:07:3a:d7:46:ef:e2:2b:e1:7d:d0:0a:42:fc:
         aa:db:55:c0:92:bb:0b:a6:ef:b2:13:36:1d:bc:66:64:6a:2f:
         6b:55:bb:65
-----BEGIN CERTIFICATE-----
MIIDZDCCAkygAwIBAgIQMPQm/x8Y/eb933cM0/6cEDANBgkqhkiG9w0BAQsFADAV
MRMwEQYDVQQDDAptb25nb2FkbWluMB4XDTE5MDIxMzE1NTI0NFoXDTIyMDEyODE1
NTI0NFowFjEUMBIGA1UEAwwLbW9uZ29zZXJ2ZXIwggEiMA0GCSqGSIb3DQEBAQUA
A4IBDwAwggEKAoIBAQCsCHc90LByMTYQNJiWGIeE+NNAT6sXfubNA7vTM19A/Su6
ukRTULDi3jIQeZ8xD7NYcxYmR9G18YLR4DQMFQzbl9Ba54lT4ur9RiDiS6PwesRj
6G+1xPWRBMJgeKt5M2/2arLVVC01pEAyeOOObhT67rXcg89tEyh6padzDIwJnpXy
jpaeCX2Ri+/GzDf4I60r8FQwlz75P2e+1tewCanHLIegPfik7PE3/m1W7PQJpDiJ
j70aVQeRmX9ozDaPtnePeZ3npc6WgZL2sIBmT4qu6U78qvXSrNzDKidq9WskEVL4
mssl4IbP86buvGBPjpD46ivWvE2/Pz7OdOtgVBbnAgMBAAGjga4wgaswCQYDVR0T
BAIwADAdBgNVHQ4EFgQUf4INuIvOf3jnJbbcLCy0l8MN1iYwRQYDVR0jBD4wPIAU
kLjM3YAgHKdjjYk8uHFQrTu2qFihGaQXMBUxEzARBgNVBAMMCm1vbmdvYWRtaW6C
CQCGyHnql9n+fDATBgNVHSUEDDAKBggrBgEFBQcDATALBgNVHQ8EBAMCBaAwFgYD
VR0RBA8wDYILbW9uZ29zZXJ2ZXIwDQYJKoZIhvcNAQELBQADggEBAKbpRFqQjNNS
Fci78JNMts9A7PLPIaoBVufLjB3a+D2A3+fiHnBlX4MAPv4Rp4rspoh1//M0lPav
g5Irjpwrpg7q5oQiXT5bkOmI3HBjynK1osHKEnTudDIXQOkVcrTsNEYvsVc4UwP5
JjpuTKwvdNNzImf+w8SYa1S6CFTqN7Sd8EtZRrxGRDcqcSoR1zB9ULdRaMlulIGs
IB+TbM6MnnZkrdN2SuhQ5ZPsTjgsT1aWixXsDIwUb9m6cIcFV/XCYWaVMmP4WsnX
zsNqfCHrcBXXp0P4YbL7/j10z17WBzrXRu/iK+F90ApC/KrbVcCSuwum77ITNh28
ZmRqL2tVu2U=
-----END CERTIFICATE-----
